; Function Attrs: mustprogress uwtable
define noundef nonnull ptr @_ZN14arrow_vendored4date11locate_zoneESt17basic_string_viewIcSt11char_traitsIcEE(i64 %0, ptr %1) local_unnamed_addr #8 personality ptr @__gxx_personality_v0 {
  %3 = load atomic i8, ptr @_ZGVZN14arrow_vendored4date13get_tzdb_listEvE5tz_db acquire, align 8
  %4 = icmp eq i8 %3, 0
  br i1 %4, label %5, label %_ZN14arrow_vendored4date8get_tzdbEv.exit, !prof !35

5:                                                ; preds = %2
  %6 = tail call i32 @__cxa_guard_acquire(ptr nonnull @_ZGVZN14arrow_vendored4date13get_tzdb_listEvE5tz_db) #32
  %.not.i.i = icmp eq i32 %6, 0
  br i1 %.not.i.i, label %_ZN14arrow_vendored4date8get_tzdbEv.exit, label %7

7:                                                ; preds = %5
  invoke fastcc void @_ZN14arrow_vendored4dateL11create_tzdbEv()
          to label %8 unwind label %10

8:                                                ; preds = %7
  %9 = tail call i32 @__cxa_atexit(ptr nonnull @_ZN14arrow_vendored4date9tzdb_listD1Ev, ptr nonnull @_ZZN14arrow_vendored4date13get_tzdb_listEvE5tz_db, ptr nonnull @__dso_handle) #32
  tail call void @__cxa_guard_release(ptr nonnull @_ZGVZN14arrow_vendored4date13get_tzdb_listEvE5tz_db) #32
  br label %_ZN14arrow_vendored4date8get_tzdbEv.exit

10:                                               ; preds = %7
  %11 = landingpad { ptr, i32 }
          cleanup
  tail call void @__cxa_guard_abort(ptr nonnull @_ZGVZN14arrow_vendored4date13get_tzdb_listEvE5tz_db) #32
  resume { ptr, i32 } %11

_ZN14arrow_vendored4date8get_tzdbEv.exit:         ; preds = %2, %5, %8
  %12 = load atomic i64, ptr @_ZZN14arrow_vendored4date13get_tzdb_listEvE5tz_db seq_cst, align 8
  %.0.i.i.i.i.i = inttoptr i64 %12 to ptr
  %13 = tail call noundef ptr @_ZNK14arrow_vendored4date4tzdb11locate_zoneESt17basic_string_viewIcSt11char_traitsIcEE(ptr noundef nonnull align 8 dereferenceable(88) %.0.i.i.i.i.i, i64 %0, ptr %1)
  ret ptr %13
}